target datalayout = "e-m:e-p270:32:32-p271:32:32-p272:64:64-i64:64-i128:128-f80:128-n8:16:32:64-S128"
target triple = "x86_64-pc-linux-gnu"

%"class.LightGBM::Tree" = type { ptr, i32, i32, %"class.std::vector", %"class.std::vector", %"class.std::vector", %"class.std::vector", %"class.std::vector.0", %"class.std::vector.5", i32, %"class.std::vector", %"class.std::vector.0", %"class.std::vector", %"class.std::vector.0", %"class.std::vector.10", %"class.std::vector.15", %"class.std::vector", %"class.std::vector.5", %"class.std::vector.5", %"class.std::vector", %"class.std::vector.5", %"class.std::vector.5", %"class.std::vector", %"class.std::vector", i8, %"class.std::vector.20", double, i32, i8, %"class.std::vector.25", %"class.std::vector.5", %"class.std::vector.20", %"class.std::vector.20" }
%"class.std::vector.0" = type { %"struct.std::_Vector_base.1" }
%"struct.std::_Vector_base.1" = type { %"struct.std::_Vector_base<unsigned int, std::allocator<unsigned int>>::_Vector_impl" }
%"struct.std::_Vector_base<unsigned int, std::allocator<unsigned int>>::_Vector_impl" = type { %"struct.std::_Vector_base<unsigned int, std::allocator<unsigned int>>::_Vector_impl_data" }
%"struct.std::_Vector_base<unsigned int, std::allocator<unsigned int>>::_Vector_impl_data" = type { ptr, ptr, ptr }
%"class.std::vector.10" = type { %"struct.std::_Vector_base.11" }
%"struct.std::_Vector_base.11" = type { %"struct.std::_Vector_base<signed char, std::allocator<signed char>>::_Vector_impl" }
%"struct.std::_Vector_base<signed char, std::allocator<signed char>>::_Vector_impl" = type { %"struct.std::_Vector_base<signed char, std::allocator<signed char>>::_Vector_impl_data" }
%"struct.std::_Vector_base<signed char, std::allocator<signed char>>::_Vector_impl_data" = type { ptr, ptr, ptr }
%"class.std::vector.15" = type { %"struct.std::_Vector_base.16" }
%"struct.std::_Vector_base.16" = type { %"struct.std::_Vector_base<float, std::allocator<float>>::_Vector_impl" }
%"struct.std::_Vector_base<float, std::allocator<float>>::_Vector_impl" = type { %"struct.std::_Vector_base<float, std::allocator<float>>::_Vector_impl_data" }
%"struct.std::_Vector_base<float, std::allocator<float>>::_Vector_impl_data" = type { ptr, ptr, ptr }
%"class.std::vector" = type { %"struct.std::_Vector_base" }
%"struct.std::_Vector_base" = type { %"struct.std::_Vector_base<int, std::allocator<int>>::_Vector_impl" }
%"struct.std::_Vector_base<int, std::allocator<int>>::_Vector_impl" = type { %"struct.std::_Vector_base<int, std::allocator<int>>::_Vector_impl_data" }
%"struct.std::_Vector_base<int, std::allocator<int>>::_Vector_impl_data" = type { ptr, ptr, ptr }
%"class.std::vector.25" = type { %"struct.std::_Vector_base.26" }
%"struct.std::_Vector_base.26" = type { %"struct.std::_Vector_base<std::vector<double>, std::allocator<std::vector<double>>>::_Vector_impl" }
%"struct.std::_Vector_base<std::vector<double>, std::allocator<std::vector<double>>>::_Vector_impl" = type { %"struct.std::_Vector_base<std::vector<double>, std::allocator<std::vector<double>>>::_Vector_impl_data" }
%"struct.std::_Vector_base<std::vector<double>, std::allocator<std::vector<double>>>::_Vector_impl_data" = type { ptr, ptr, ptr }
%"class.std::vector.5" = type { %"struct.std::_Vector_base.6" }
%"struct.std::_Vector_base.6" = type { %"struct.std::_Vector_base<double, std::allocator<double>>::_Vector_impl" }
%"struct.std::_Vector_base<double, std::allocator<double>>::_Vector_impl" = type { %"struct.std::_Vector_base<double, std::allocator<double>>::_Vector_impl_data" }
%"struct.std::_Vector_base<double, std::allocator<double>>::_Vector_impl_data" = type { ptr, ptr, ptr }
%"class.std::vector.20" = type { %"struct.std::_Vector_base.21" }
%"struct.std::_Vector_base.21" = type { %"struct.std::_Vector_base<std::vector<int>, std::allocator<std::vector<int>>>::_Vector_impl" }
%"struct.std::_Vector_base<std::vector<int>, std::allocator<std::vector<int>>>::_Vector_impl" = type { %"struct.std::_Vector_base<std::vector<int>, std::allocator<std::vector<int>>>::_Vector_impl_data" }
%"struct.std::_Vector_base<std::vector<int>, std::allocator<std::vector<int>>>::_Vector_impl_data" = type { ptr, ptr, ptr }

; Function Attrs: mustprogress nounwind uwtable
define linkonce_odr noundef nonnull align 8 dereferenceable(8) ptr @_ZNSt6vectorIdSaIdEEixEm(ptr noundef nonnull align 8 dereferenceable(24) %0, i64 noundef %1) #0 comdat align 2 {
  %3 = alloca ptr, align 8
  %4 = alloca i64, align 8
  store ptr %0, ptr %3, align 8, !tbaa !141
  store i64 %1, ptr %4, align 8, !tbaa !132
  %5 = load ptr, ptr %3, align 8
  %6 = getelementptr inbounds nuw %"struct.std::_Vector_base.6", ptr %5, i32 0, i32 0
  %7 = getelementptr inbounds nuw %"struct.std::_Vector_base<double, std::allocator<double>>::_Vector_impl_data", ptr %6, i32 0, i32 0
  %8 = load ptr, ptr %7, align 8, !tbaa !152
  %9 = load i64, ptr %4, align 8, !tbaa !132
  %10 = getelementptr inbounds nuw double, ptr %8, i64 %9
  ret ptr %10
}

; Function Attrs: mustprogress nounwind uwtable
define linkonce_odr noundef nonnull align 4 dereferenceable(4) ptr @_ZNSt6vectorIjSaIjEEixEm(ptr noundef nonnull align 8 dereferenceable(24) %0, i64 noundef %1) #0 comdat align 2 {
  %3 = alloca ptr, align 8
  %4 = alloca i64, align 8
  store ptr %0, ptr %3, align 8, !tbaa !74
  store i64 %1, ptr %4, align 8, !tbaa !132
  %5 = load ptr, ptr %3, align 8
  %6 = getelementptr inbounds nuw %"struct.std::_Vector_base.1", ptr %5, i32 0, i32 0
  %7 = getelementptr inbounds nuw %"struct.std::_Vector_base<unsigned int, std::allocator<unsigned int>>::_Vector_impl_data", ptr %6, i32 0, i32 0
  %8 = load ptr, ptr %7, align 8, !tbaa !151
  %9 = load i64, ptr %4, align 8, !tbaa !132
  %10 = getelementptr inbounds nuw i32, ptr %8, i64 %9
  ret ptr %10
}

; Function Attrs: inlinehint mustprogress nounwind uwtable
define linkonce_odr void @_ZN8LightGBM4Tree14SetMissingTypeEPaa(ptr noundef %0, i8 noundef signext %1) #3 comdat align 2 {
  %3 = alloca ptr, align 8
  %4 = alloca i8, align 1
  store ptr %0, ptr %3, align 8, !tbaa !153
  store i8 %1, ptr %4, align 1, !tbaa !139
  %5 = load ptr, ptr %3, align 8, !tbaa !153
  %6 = load i8, ptr %5, align 1, !tbaa !139
  %7 = sext i8 %6 to i32
  %8 = and i32 %7, 3
  %9 = trunc i32 %8 to i8
  store i8 %9, ptr %5, align 1, !tbaa !139
  %10 = load i8, ptr %4, align 1, !tbaa !139
  %11 = sext i8 %10 to i32
  %12 = shl i32 %11, 2
  %13 = load ptr, ptr %3, align 8, !tbaa !153
  %14 = load i8, ptr %13, align 1, !tbaa !139
  %15 = sext i8 %14 to i32
  %16 = or i32 %15, %12
  %17 = trunc i32 %16 to i8
  store i8 %17, ptr %13, align 1, !tbaa !139
  ret void
}

; Function Attrs: inlinehint mustprogress nounwind uwtable
define linkonce_odr void @_ZN8LightGBM4Tree15SetDecisionTypeEPaba(ptr noundef %0, i1 noundef zeroext %1, i8 noundef signext %2) #3 comdat align 2 {
  %4 = alloca ptr, align 8
  %5 = alloca i8, align 1
  %6 = alloca i8, align 1
  store ptr %0, ptr %4, align 8, !tbaa !153
  %7 = zext i1 %1 to i8
  store i8 %7, ptr %5, align 1, !tbaa !136
  store i8 %2, ptr %6, align 1, !tbaa !139
  %8 = load i8, ptr %5, align 1, !tbaa !136, !range !54, !noundef !55
  %9 = trunc i8 %8 to i1
  br i1 %9, label %10, label %18

10:                                               ; preds = %3
  %11 = load i8, ptr %6, align 1, !tbaa !139
  %12 = sext i8 %11 to i32
  %13 = load ptr, ptr %4, align 8, !tbaa !153
  %14 = load i8, ptr %13, align 1, !tbaa !139
  %15 = sext i8 %14 to i32
  %16 = or i32 %15, %12
  %17 = trunc i32 %16 to i8
  store i8 %17, ptr %13, align 1, !tbaa !139
  br label %27

18:                                               ; preds = %3
  %19 = load i8, ptr %6, align 1, !tbaa !139
  %20 = sext i8 %19 to i32
  %21 = sub nsw i32 127, %20
  %22 = load ptr, ptr %4, align 8, !tbaa !153
  %23 = load i8, ptr %22, align 1, !tbaa !139
  %24 = sext i8 %23 to i32
  %25 = and i32 %24, %21
  %26 = trunc i32 %25 to i8
  store i8 %26, ptr %22, align 1, !tbaa !139
  br label %27

27:                                               ; preds = %18, %10
  ret void
}

; Function Attrs: mustprogress nounwind uwtable
define linkonce_odr noundef nonnull align 1 dereferenceable(1) ptr @_ZNSt6vectorIaSaIaEEixEm(ptr noundef nonnull align 8 dereferenceable(24) %0, i64 noundef %1) #0 comdat align 2 {
  %3 = alloca ptr, align 8
  %4 = alloca i64, align 8
  store ptr %0, ptr %3, align 8, !tbaa !142
  store i64 %1, ptr %4, align 8, !tbaa !132
  %5 = load ptr, ptr %3, align 8
  %6 = getelementptr inbounds nuw %"struct.std::_Vector_base.11", ptr %5, i32 0, i32 0
  %7 = getelementptr inbounds nuw %"struct.std::_Vector_base<signed char, std::allocator<signed char>>::_Vector_impl_data", ptr %6, i32 0, i32 0
  %8 = load ptr, ptr %7, align 8, !tbaa !154
  %9 = load i64, ptr %4, align 8, !tbaa !132
  %10 = getelementptr inbounds nuw i8, ptr %8, i64 %9
  ret ptr %10
}

; Function Attrs: mustprogress uwtable
define noundef i32 @_ZN8LightGBM4Tree5SplitEiiijdddiiddfNS_11MissingTypeEb(ptr noundef nonnull align 8 dereferenceable(648) %0, i32 noundef %1, i32 noundef %2, i32 noundef %3, i32 noundef %4, double noundef %5, double noundef %6, double noundef %7, i32 noundef %8, i32 noundef %9, double noundef %10, double noundef %11, float noundef %12, i32 noundef %13, i1 noundef zeroext %14) #1 align 2 {
  %16 = alloca ptr, align 8
  %17 = alloca i32, align 4
  %18 = alloca i32, align 4
  %19 = alloca i32, align 4
  %20 = alloca i32, align 4
  %21 = alloca double, align 8
  %22 = alloca double, align 8
  %23 = alloca double, align 8
  %24 = alloca i32, align 4
  %25 = alloca i32, align 4
  %26 = alloca double, align 8
  %27 = alloca double, align 8
  %28 = alloca float, align 4
  %29 = alloca i32, align 4
  %30 = alloca i8, align 1
  %31 = alloca i32, align 4
  store ptr %0, ptr %16, align 8, !tbaa !4
  store i32 %1, ptr %17, align 4, !tbaa !13
  store i32 %2, ptr %18, align 4, !tbaa !13
  store i32 %3, ptr %19, align 4, !tbaa !13
  store i32 %4, ptr %20, align 4, !tbaa !13
  store double %5, ptr %21, align 8, !tbaa !57
  store double %6, ptr %22, align 8, !tbaa !57
  store double %7, ptr %23, align 8, !tbaa !57
  store i32 %8, ptr %24, align 4, !tbaa !13
  store i32 %9, ptr %25, align 4, !tbaa !13
  store double %10, ptr %26, align 8, !tbaa !57
  store double %11, ptr %27, align 8, !tbaa !57
  store float %12, ptr %28, align 4, !tbaa !256
  store i32 %13, ptr %29, align 4, !tbaa !278
  %32 = zext i1 %14 to i8
  store i8 %32, ptr %30, align 1, !tbaa !136
  %33 = load ptr, ptr %16, align 8
  %34 = load i32, ptr %17, align 4, !tbaa !13
  %35 = load i32, ptr %18, align 4, !tbaa !13
  %36 = load i32, ptr %19, align 4, !tbaa !13
  %37 = load double, ptr %22, align 8, !tbaa !57
  %38 = load double, ptr %23, align 8, !tbaa !57
  %39 = load i32, ptr %24, align 4, !tbaa !13
  %40 = load i32, ptr %25, align 4, !tbaa !13
  %41 = load double, ptr %26, align 8, !tbaa !57
  %42 = load double, ptr %27, align 8, !tbaa !57
  %43 = load float, ptr %28, align 4, !tbaa !256
  call void @_ZN8LightGBM4Tree5SplitEiiiddiiddf(ptr noundef nonnull align 8 dereferenceable(648) %33, i32 noundef %34, i32 noundef %35, i32 noundef %36, double noundef %37, double noundef %38, i32 noundef %39, i32 noundef %40, double noundef %41, double noundef %42, float noundef %43)
  call void @llvm.lifetime.start.p0(i64 4, ptr %31) #7
  %44 = getelementptr inbounds nuw %"class.LightGBM::Tree", ptr %33, i32 0, i32 2
  %45 = load i32, ptr %44, align 4, !tbaa !56
  %46 = sub nsw i32 %45, 1
  store i32 %46, ptr %31, align 4, !tbaa !13
  %47 = getelementptr inbounds nuw %"class.LightGBM::Tree", ptr %33, i32 0, i32 14
  %48 = load i32, ptr %31, align 4, !tbaa !13
  %49 = sext i32 %48 to i64
  %50 = call noundef nonnull align 1 dereferenceable(1) ptr @_ZNSt6vectorIaSaIaEEixEm(ptr noundef nonnull align 8 dereferenceable(24) %47, i64 noundef %49) #7
  store i8 0, ptr %50, align 1, !tbaa !139
  %51 = getelementptr inbounds nuw %"class.LightGBM::Tree", ptr %33, i32 0, i32 14
  %52 = load i32, ptr %31, align 4, !tbaa !13
  %53 = sext i32 %52 to i64
  %54 = call noundef nonnull align 1 dereferenceable(1) ptr @_ZNSt6vectorIaSaIaEEixEm(ptr noundef nonnull align 8 dereferenceable(24) %51, i64 noundef %53) #7
  call void @_ZN8LightGBM4Tree15SetDecisionTypeEPaba(ptr noundef %54, i1 noundef zeroext false, i8 noundef signext 1)
  %55 = getelementptr inbounds nuw %"class.LightGBM::Tree", ptr %33, i32 0, i32 14
  %56 = load i32, ptr %31, align 4, !tbaa !13
  %57 = sext i32 %56 to i64
  %58 = call noundef nonnull align 1 dereferenceable(1) ptr @_ZNSt6vectorIaSaIaEEixEm(ptr noundef nonnull align 8 dereferenceable(24) %55, i64 noundef %57) #7
  %59 = load i8, ptr %30, align 1, !tbaa !136, !range !54, !noundef !55
  %60 = trunc i8 %59 to i1
  call void @_ZN8LightGBM4Tree15SetDecisionTypeEPaba(ptr noundef %58, i1 noundef zeroext %60, i8 noundef signext 2)
  %61 = getelementptr inbounds nuw %"class.LightGBM::Tree", ptr %33, i32 0, i32 14
  %62 = load i32, ptr %31, align 4, !tbaa !13
  %63 = sext i32 %62 to i64
  %64 = call noundef nonnull align 1 dereferenceable(1) ptr @_ZNSt6vectorIaSaIaEEixEm(ptr noundef nonnull align 8 dereferenceable(24) %61, i64 noundef %63) #7
  %65 = load i32, ptr %29, align 4, !tbaa !278
  %66 = trunc i32 %65 to i8
  call void @_ZN8LightGBM4Tree14SetMissingTypeEPaa(ptr noundef %64, i8 noundef signext %66)
  %67 = load i32, ptr %20, align 4, !tbaa !13
  %68 = getelementptr inbounds nuw %"class.LightGBM::Tree", ptr %33, i32 0, i32 7
  %69 = load i32, ptr %31, align 4, !tbaa !13
  %70 = sext i32 %69 to i64
  %71 = call noundef nonnull align 4 dereferenceable(4) ptr @_ZNSt6vectorIjSaIjEEixEm(ptr noundef nonnull align 8 dereferenceable(24) %68, i64 noundef %70) #7
  store i32 %67, ptr %71, align 4, !tbaa !13
  %72 = load double, ptr %21, align 8, !tbaa !57
  %73 = getelementptr inbounds nuw %"class.LightGBM::Tree", ptr %33, i32 0, i32 8
  %74 = load i32, ptr %31, align 4, !tbaa !13
  %75 = sext i32 %74 to i64
  %76 = call noundef nonnull align 8 dereferenceable(8) ptr @_ZNSt6vectorIdSaIdEEixEm(ptr noundef nonnull align 8 dereferenceable(24) %73, i64 noundef %75) #7
  store double %72, ptr %76, align 8, !tbaa !57
  %77 = getelementptr inbounds nuw %"class.LightGBM::Tree", ptr %33, i32 0, i32 2
  %78 = load i32, ptr %77, align 4, !tbaa !56
  %79 = add nsw i32 %78, 1
  store i32 %79, ptr %77, align 4, !tbaa !56
  %80 = getelementptr inbounds nuw %"class.LightGBM::Tree", ptr %33, i32 0, i32 2
  %81 = load i32, ptr %80, align 4, !tbaa !56
  %82 = sub nsw i32 %81, 1
  call void @llvm.lifetime.end.p0(i64 4, ptr %31) #7
  ret i32 %82
}