; Function Attrs: mustprogress uwtable
define noundef i32 @_ZN8LightGBM4Tree5SplitEiiijdddiiddfNS_11MissingTypeEb(ptr noundef nonnull align 8 dereferenceable(648) %0, i32 noundef %1, i32 noundef %2, i32 noundef %3, i32 noundef %4, double noundef %5, double noundef %6, double noundef %7, i32 noundef %8, i32 noundef %9, double noundef %10, double noundef %11, float noundef %12, i32 noundef %13, i1 noundef zeroext %14) local_unnamed_addr #1 align 2 {
_ZN8LightGBM4Tree15SetDecisionTypeEPaba.exit:
  tail call void @_ZN8LightGBM4Tree5SplitEiiiddiiddf(ptr noundef nonnull align 8 dereferenceable(648) %0, i32 noundef %1, i32 noundef %2, i32 noundef %3, double noundef %6, double noundef %7, i32 noundef %8, i32 noundef %9, double noundef %10, double noundef %11, float noundef %12)
  %15 = getelementptr inbounds nuw i8, ptr %0, i64 12
  %16 = load i32, ptr %15, align 4, !tbaa !130
  %17 = add nsw i32 %16, -1
  %18 = getelementptr inbounds nuw i8, ptr %0, i64 264
  %19 = sext i32 %17 to i64
  %20 = load ptr, ptr %18, align 8, !tbaa !29
  %21 = getelementptr inbounds nuw i8, ptr %20, i64 %19
  store i8 0, ptr %21, align 1, !tbaa !157
  %22 = load ptr, ptr %18, align 8, !tbaa !29
  %23 = getelementptr inbounds nuw i8, ptr %22, i64 %19
  %24 = load i8, ptr %23, align 1, !tbaa !157
  %25 = and i8 %24, 126
  store i8 %25, ptr %23, align 1, !tbaa !157
  %26 = load ptr, ptr %18, align 8, !tbaa !29
  %27 = getelementptr inbounds nuw i8, ptr %26, i64 %19
  %28 = load i8, ptr %27, align 1, !tbaa !157
  %29 = and i8 %28, 125
  %30 = or i8 %28, 2
  %storemerge.i = select i1 %14, i8 %30, i8 %29
  store i8 %storemerge.i, ptr %27, align 1, !tbaa !157
  %31 = load ptr, ptr %18, align 8, !tbaa !29
  %32 = getelementptr inbounds nuw i8, ptr %31, i64 %19
  %33 = trunc i32 %13 to i8
  %34 = load i8, ptr %32, align 1, !tbaa !157
  %35 = and i8 %34, 3
  %36 = shl i8 %33, 2
  %37 = or disjoint i8 %35, %36
  store i8 %37, ptr %32, align 1, !tbaa !157
  %38 = getelementptr inbounds nuw i8, ptr %0, i64 112
  %39 = load ptr, ptr %38, align 8, !tbaa !32
  %40 = getelementptr inbounds nuw i32, ptr %39, i64 %19
  store i32 %4, ptr %40, align 4, !tbaa !36
  %41 = getelementptr inbounds nuw i8, ptr %0, i64 136
  %42 = load ptr, ptr %41, align 8, !tbaa !18
  %43 = getelementptr inbounds nuw double, ptr %42, i64 %19
  store double %5, ptr %43, align 8, !tbaa !66
  %44 = load i32, ptr %15, align 4, !tbaa !130
  %45 = add nsw i32 %44, 1
  store i32 %45, ptr %15, align 4, !tbaa !130
  ret i32 %44
}